; ModuleID = 'source-C-CXX/28/90.c'
source_filename = "source-C-CXX/28/90.c"
target datalayout = "e-m:e-p270:32:32-p271:32:32-p272:64:64-i64:64-f80:128-n8:16:32:64-S128"
target triple = "x86_64-pc-linux-gnu"

@.str = private unnamed_addr constant [4 x i8] c"%d\0A\00", align 1
@.str.3 = private unnamed_addr constant [7 x i8] c"%.3lf\0A\00", align 1
@str = private unnamed_addr constant [6 x i8] c"3.500\00", align 1
@str.4 = private unnamed_addr constant [6 x i8] c"2.000\00", align 1

; Function Attrs: nofree nounwind sspstrong uwtable
define dso_local i32 @main() local_unnamed_addr #0 {
  %1 = alloca i32, align 4
  %2 = alloca [100 x i32], align 16
  %3 = alloca [100 x i32], align 16
  %4 = alloca [100 x i32], align 16
  %5 = bitcast i32* %1 to i8*
  call void @llvm.lifetime.start.p0i8(i64 4, i8* nonnull %5) #4
  %6 = bitcast [100 x i32]* %2 to i8*
  call void @llvm.lifetime.start.p0i8(i64 400, i8* nonnull %6) #4
  %7 = bitcast [100 x i32]* %3 to i8*
  call void @llvm.lifetime.start.p0i8(i64 400, i8* nonnull %7) #4
  %8 = bitcast [100 x i32]* %4 to i8*
  call void @llvm.lifetime.start.p0i8(i64 400, i8* nonnull %8) #4
  %9 = call i32 (i8*, ...) @__isoc99_scanf(i8* getelementptr inbounds ([4 x i8], [4 x i8]* @.str, i64 0, i64 0), i32* nonnull %1)
  %10 = load i32, i32* %1, align 4, !tbaa !5
  %11 = icmp sgt i32 %10, 0
  br i1 %11, label %18, label %70

12:                                               ; preds = %18
  %13 = getelementptr inbounds [100 x i32], [100 x i32]* %2, i64 0, i64 0
  %14 = getelementptr inbounds [100 x i32], [100 x i32]* %3, i64 0, i64 0
  %15 = getelementptr inbounds [100 x i32], [100 x i32]* %2, i64 0, i64 1
  %16 = getelementptr inbounds [100 x i32], [100 x i32]* %3, i64 0, i64 1
  %17 = icmp sgt i32 %23, 0
  br i1 %17, label %26, label %70

18:                                               ; preds = %0, %18
  %19 = phi i64 [ %22, %18 ], [ 0, %0 ]
  %20 = getelementptr inbounds [100 x i32], [100 x i32]* %4, i64 0, i64 %19
  %21 = call i32 (i8*, ...) @__isoc99_scanf(i8* getelementptr inbounds ([4 x i8], [4 x i8]* @.str, i64 0, i64 0), i32* nonnull %20)
  %22 = add nuw nsw i64 %19, 1
  %23 = load i32, i32* %1, align 4, !tbaa !5
  %24 = sext i32 %23 to i64
  %25 = icmp slt i64 %22, %24
  br i1 %25, label %18, label %12, !llvm.loop !9

26:                                               ; preds = %12, %65
  %27 = phi i64 [ %66, %65 ], [ 0, %12 ]
  %28 = getelementptr inbounds [100 x i32], [100 x i32]* %4, i64 0, i64 %27
  %29 = load i32, i32* %28, align 4, !tbaa !5
  switch i32 %29, label %30 [
    i32 1, label %34
    i32 2, label %36
  ]

30:                                               ; preds = %26
  %31 = icmp sgt i32 %29, 2
  br i1 %31, label %32, label %61

32:                                               ; preds = %30
  %33 = zext i32 %29 to i64
  br label %38

34:                                               ; preds = %26
  %35 = call i32 @puts(i8* nonnull dereferenceable(1) getelementptr inbounds ([6 x i8], [6 x i8]* @str.4, i64 0, i64 0))
  br label %65

36:                                               ; preds = %26
  %37 = call i32 @puts(i8* nonnull dereferenceable(1) getelementptr inbounds ([6 x i8], [6 x i8]* @str, i64 0, i64 0))
  br label %65

38:                                               ; preds = %32, %38
  %39 = phi i64 [ 2, %32 ], [ %59, %38 ]
  %40 = phi double [ 0.000000e+00, %32 ], [ %58, %38 ]
  store i32 2, i32* %13, align 16, !tbaa !5
  store i32 1, i32* %14, align 16, !tbaa !5
  store i32 3, i32* %15, align 4, !tbaa !5
  store i32 2, i32* %16, align 4, !tbaa !5
  %41 = add nsw i64 %39, -1
  %42 = getelementptr inbounds [100 x i32], [100 x i32]* %2, i64 0, i64 %41
  %43 = load i32, i32* %42, align 4, !tbaa !5
  %44 = add nsw i64 %39, -2
  %45 = getelementptr inbounds [100 x i32], [100 x i32]* %2, i64 0, i64 %44
  %46 = load i32, i32* %45, align 4, !tbaa !5
  %47 = add nsw i32 %46, %43
  %48 = getelementptr inbounds [100 x i32], [100 x i32]* %2, i64 0, i64 %39
  store i32 %47, i32* %48, align 4, !tbaa !5
  %49 = getelementptr inbounds [100 x i32], [100 x i32]* %3, i64 0, i64 %41
  %50 = load i32, i32* %49, align 4, !tbaa !5
  %51 = getelementptr inbounds [100 x i32], [100 x i32]* %3, i64 0, i64 %44
  %52 = load i32, i32* %51, align 4, !tbaa !5
  %53 = add nsw i32 %52, %50
  %54 = getelementptr inbounds [100 x i32], [100 x i32]* %3, i64 0, i64 %39
  store i32 %53, i32* %54, align 4, !tbaa !5
  %55 = sitofp i32 %47 to double
  %56 = sitofp i32 %53 to double
  %57 = fdiv double %55, %56
  %58 = fadd double %40, %57
  %59 = add nuw nsw i64 %39, 1
  %60 = icmp eq i64 %59, %33
  br i1 %60, label %61, label %38, !llvm.loop !11

61:                                               ; preds = %38, %30
  %62 = phi double [ 0.000000e+00, %30 ], [ %58, %38 ]
  %63 = fadd double %62, 3.500000e+00
  %64 = call i32 (i8*, ...) @printf(i8* nonnull dereferenceable(1) getelementptr inbounds ([7 x i8], [7 x i8]* @.str.3, i64 0, i64 0), double %63)
  br label %65

65:                                               ; preds = %34, %61, %36
  %66 = add nuw nsw i64 %27, 1
  %67 = load i32, i32* %1, align 4, !tbaa !5
  %68 = sext i32 %67 to i64
  %69 = icmp slt i64 %66, %68
  br i1 %69, label %26, label %70, !llvm.loop !12

70:                                               ; preds = %65, %0, %12
  call void @llvm.lifetime.end.p0i8(i64 400, i8* nonnull %8) #4
  call void @llvm.lifetime.end.p0i8(i64 400, i8* nonnull %7) #4
  call void @llvm.lifetime.end.p0i8(i64 400, i8* nonnull %6) #4
  call void @llvm.lifetime.end.p0i8(i64 4, i8* nonnull %5) #4
  ret i32 0
}

; Function Attrs: argmemonly mustprogress nofree nosync nounwind willreturn
declare void @llvm.lifetime.start.p0i8(i64 immarg, i8* nocapture) #1

; Function Attrs: nofree nounwind
declare noundef i32 @__isoc99_scanf(i8* nocapture noundef readonly, ...) local_unnamed_addr #2

; Function Attrs: nofree nounwind
declare noundef i32 @printf(i8* nocapture noundef readonly, ...) local_unnamed_addr #2

; Function Attrs: argmemonly mustprogress nofree nosync nounwind willreturn
declare void @llvm.lifetime.end.p0i8(i64 immarg, i8* nocapture) #1

; Function Attrs: nofree nounwind
declare noundef i32 @puts(i8* nocapture noundef readonly) local_unnamed_addr #3


!llvm.module.flags = !{!0, !1, !2, !3}
!llvm.ident = !{!4}

!0 = !{i32 1, !"wchar_size", i32 4}
!1 = !{i32 7, !"PIC Level", i32 2}
!2 = !{i32 7, !"PIE Level", i32 2}
!3 = !{i32 7, !"uwtable", i32 1}
!4 = !{!"clang version 13.0.0"}
!5 = !{!6, !6, i64 0}
!6 = !{!"int", !7, i64 0}
!7 = !{!"omnipotent char", !8, i64 0}
!8 = !{!"Simple C/C++ TBAA"}
!9 = distinct !{!9, !10}
!10 = !{!"llvm.loop.mustprogress"}
!11 = distinct !{!11, !10}
!12 = distinct !{!12, !10}
